target datalayout = "e-m:e-p270:32:32-p271:32:32-p272:64:64-i64:64-i128:128-f80:128-n8:16:32:64-S128"
target triple = "x86_64-pc-linux-gnu"

@bio_err = external global ptr, align 8
@.str.219 = private unnamed_addr constant [2 x i8] c"r\00", align 1
@.str.220 = private unnamed_addr constant [28 x i8] c"Can't open session file %s\0A\00", align 1
@.str.221 = private unnamed_addr constant [29 x i8] c"Can't parse session file %s\0A\00", align 1

; Function Attrs: nounwind uwtable
define internal ptr @read_session(ptr noundef %0) #0 {
  %2 = alloca ptr, align 8
  %3 = alloca ptr, align 8
  %4 = alloca ptr, align 8
  %5 = alloca ptr, align 8
  %6 = alloca i32, align 4
  store ptr %0, ptr %3, align 8, !tbaa !11
  call void @llvm.lifetime.start.p0(i64 8, ptr %4) #10
  call void @llvm.lifetime.start.p0(i64 8, ptr %5) #10
  %7 = load ptr, ptr %3, align 8, !tbaa !11
  %8 = call ptr @BIO_new_file(ptr noundef %7, ptr noundef @.str.219)
  store ptr %8, ptr %5, align 8, !tbaa !35
  %9 = load ptr, ptr %5, align 8, !tbaa !35
  %10 = icmp eq ptr %9, null
  br i1 %10, label %11, label %16

11:                                               ; preds = %1
  %12 = load ptr, ptr @bio_err, align 8, !tbaa !35
  %13 = load ptr, ptr %3, align 8, !tbaa !11
  %14 = call i32 (ptr, ptr, ...) @BIO_printf(ptr noundef %12, ptr noundef @.str.220, ptr noundef %13)
  %15 = load ptr, ptr @bio_err, align 8, !tbaa !35
  call void @ERR_print_errors(ptr noundef %15)
  store ptr null, ptr %2, align 8
  store i32 1, ptr %6, align 4
  br label %30

16:                                               ; preds = %1
  %17 = load ptr, ptr %5, align 8, !tbaa !35
  %18 = call ptr @PEM_read_bio_SSL_SESSION(ptr noundef %17, ptr noundef null, ptr noundef null, ptr noundef null)
  store ptr %18, ptr %4, align 8, !tbaa !48
  %19 = load ptr, ptr %4, align 8, !tbaa !48
  %20 = icmp eq ptr %19, null
  br i1 %20, label %21, label %26

21:                                               ; preds = %16
  %22 = load ptr, ptr @bio_err, align 8, !tbaa !35
  %23 = load ptr, ptr %3, align 8, !tbaa !11
  %24 = call i32 (ptr, ptr, ...) @BIO_printf(ptr noundef %22, ptr noundef @.str.221, ptr noundef %23)
  %25 = load ptr, ptr @bio_err, align 8, !tbaa !35
  call void @ERR_print_errors(ptr noundef %25)
  br label %26

26:                                               ; preds = %21, %16
  %27 = load ptr, ptr %5, align 8, !tbaa !35
  %28 = call i32 @BIO_free(ptr noundef %27)
  %29 = load ptr, ptr %4, align 8, !tbaa !48
  store ptr %29, ptr %2, align 8
  store i32 1, ptr %6, align 4
  br label %30

30:                                               ; preds = %26, %11
  call void @llvm.lifetime.end.p0(i64 8, ptr %5) #10
  call void @llvm.lifetime.end.p0(i64 8, ptr %4) #10
  %31 = load ptr, ptr %2, align 8
  ret ptr %31
}