; Function Attrs: nounwind uwtable
define internal fastcc ptr @read_session(ptr noundef nonnull %0) unnamed_addr #7 {
  %2 = tail call ptr @BIO_new_file(ptr noundef nonnull %0, ptr noundef nonnull @.str.219) #23
  %3 = icmp eq ptr %2, null
  br i1 %3, label %4, label %8

4:                                                ; preds = %1
  %5 = load ptr, ptr @bio_err, align 8, !tbaa !19
  %6 = tail call i32 (ptr, ptr, ...) @BIO_printf(ptr noundef %5, ptr noundef nonnull @.str.220, ptr noundef nonnull %0) #23
  %7 = load ptr, ptr @bio_err, align 8, !tbaa !19
  tail call void @ERR_print_errors(ptr noundef %7) #23
  br label %17

8:                                                ; preds = %1
  %9 = tail call ptr @PEM_read_bio_SSL_SESSION(ptr noundef nonnull %2, ptr noundef null, ptr noundef null, ptr noundef null) #23
  %10 = icmp eq ptr %9, null
  br i1 %10, label %11, label %15

11:                                               ; preds = %8
  %12 = load ptr, ptr @bio_err, align 8, !tbaa !19
  %13 = tail call i32 (ptr, ptr, ...) @BIO_printf(ptr noundef %12, ptr noundef nonnull @.str.221, ptr noundef nonnull %0) #23
  %14 = load ptr, ptr @bio_err, align 8, !tbaa !19
  tail call void @ERR_print_errors(ptr noundef %14) #23
  br label %15

15:                                               ; preds = %11, %8
  %16 = tail call i32 @BIO_free(ptr noundef nonnull %2) #23
  br label %17

17:                                               ; preds = %15, %4
  %.0 = phi ptr [ null, %4 ], [ %9, %15 ]
  ret ptr %.0
}